; Function Attrs: mustprogress uwtable
define void @_ZN6icu_7513UnicodeStringC2ERKS0_ii(ptr noundef nonnull align 8 dereferenceable(64) %this, ptr noundef nonnull align 8 dereferenceable(64) %that, i32 noundef %srcStart, i32 noundef %srcLength) unnamed_addr #5 align 2 personality ptr @__gxx_personality_v0 {
  store ptr getelementptr inbounds ({ [13 x ptr] }, ptr @_ZTVN6icu_7513UnicodeStringE, i64 0, i32 0, i64 2), ptr %this, align 8
  %fUnion2 = getelementptr inbounds i8, ptr %this, i64 8
  store i16 2, ptr %fUnion2, align 8
  %fUnion.i.i.i.i.i = getelementptr inbounds i8, ptr %that, i64 8
  %1 = load i16, ptr %fUnion.i.i.i.i.i, align 8
  %cmp.i.i.i.i.i = icmp slt i16 %1, 0
  %2 = ashr i16 %1, 5
  %shr.i.i.i.i.i = sext i16 %2 to i32
  %fLength.i.i.i.i = getelementptr inbounds i8, ptr %that, i64 12
  %3 = load i32, ptr %fLength.i.i.i.i, align 4
  %cond.i.i.i.i = select i1 %cmp.i.i.i.i.i, i32 %3, i32 %shr.i.i.i.i.i
  %cmp.i.i1.i = icmp slt i32 %srcStart, 0
  %spec.select.i.i = tail call i32 @llvm.smin.i32(i32 %cond.i.i.i.i, i32 %srcStart)
  %srcStart.addr.0.i.i = select i1 %cmp.i.i1.i, i32 0, i32 %spec.select.i.i
  %cmp5.i.i.i = icmp slt i32 %srcLength, 0
  %sub.i.i.i = sub nsw i32 %cond.i.i.i.i, %srcStart.addr.0.i.i
  %spec.select5.i.i = tail call i32 @llvm.smin.i32(i32 %sub.i.i.i, i32 %srcLength)
  %srcLength.addr.0.i.i = select i1 %cmp5.i.i.i, i32 0, i32 %spec.select5.i.i
  %4 = and i16 %1, 2
  %tobool.not.i.i.i = icmp eq i16 %4, 0
  %fBuffer.i.i.i = getelementptr inbounds i8, ptr %that, i64 10
  %fArray.i.i.i = getelementptr inbounds i8, ptr %that, i64 24
  %5 = load ptr, ptr %fArray.i.i.i, align 8
  %cond.i.i.i = select i1 %tobool.not.i.i.i, ptr %5, ptr %fBuffer.i.i.i
  %call2.i.i1 = invoke noundef nonnull align 8 dereferenceable(64) ptr @_ZN6icu_7513UnicodeString9doReplaceEiiPKDsii(ptr noundef nonnull align 8 dereferenceable(64) %this, i32 noundef 0, i32 noundef 0, ptr noundef %cond.i.i.i, i32 noundef %srcStart.addr.0.i.i, i32 noundef %srcLength.addr.0.i.i)
          to label %invoke.cont unwind label %lpad

invoke.cont:                                      ; preds = %0
  ret void

lpad:                                             ; preds = %0
  %6 = landingpad { ptr, i32 }
          cleanup
  tail call void @_ZN6icu_757UObjectD2Ev(ptr noundef nonnull align 8 dereferenceable(8) %this) #22
  resume { ptr, i32 } %6
}